; Function Attrs: nounwind uwtable
define internal void @cast_sa_to_infer(ptr noundef %0, ptr noundef %1, ptr noundef %2) #0 {
  %4 = tail call i32 @sema_len_from_const(ptr noundef %1) #10
  %5 = load ptr, ptr %1, align 8
  %6 = tail call ptr @type_get_indexed_type(ptr noundef %5) #10
  %7 = tail call ptr @type_get_array(ptr noundef %6, i32 noundef %4) #10
  %8 = tail call ptr @type_infer_len_from_actual_type(ptr noundef %2, ptr noundef %7)
  tail call void @cast_no_check(ptr noundef %0, ptr noundef nonnull %1, ptr noundef %8, i1 noundef zeroext false)
  ret void
}